target datalayout = "e-m:e-p270:32:32-p271:32:32-p272:64:64-i64:64-i128:128-f80:128-n8:16:32:64-S128"
target triple = "x86_64-pc-linux-gnu"

%"class.LIEF::ART::JsonVisitor" = type { %"class.LIEF::JsonVisitor" }
%"class.LIEF::JsonVisitor" = type { %"class.LIEF::Visitor", %"class.nlohmann::json_abi_v3_11_2::basic_json" }
%"class.LIEF::Visitor" = type { ptr, %"class.std::set" }
%"class.std::set" = type { %"class.std::_Rb_tree" }
%"class.std::_Rb_tree" = type { %"struct.std::_Rb_tree<unsigned long, unsigned long, std::_Identity<unsigned long>, std::less<unsigned long>>::_Rb_tree_impl" }
%"struct.std::_Rb_tree<unsigned long, unsigned long, std::_Identity<unsigned long>, std::less<unsigned long>>::_Rb_tree_impl" = type { [8 x i8], %"struct.std::_Rb_tree_header" }
%"struct.std::_Rb_tree_header" = type { %"struct.std::_Rb_tree_node_base", i64 }
%"struct.std::_Rb_tree_node_base" = type { i32, ptr, ptr, ptr }
%"class.nlohmann::json_abi_v3_11_2::basic_json" = type { i8, %"union.nlohmann::json_abi_v3_11_2::basic_json<>::json_value" }
%"union.nlohmann::json_abi_v3_11_2::basic_json<>::json_value" = type { ptr }

@.str = private unnamed_addr constant [7 x i8] c"header\00", align 1

; Function Attrs: mustprogress nounwind uwtable
define linkonce_odr hidden void @_ZN8nlohmann16json_abi_v3_11_210basic_jsonISt3mapSt6vectorNSt7__cxx1112basic_stringIcSt11char_traitsIcESaIcEEEblmdSaNS0_14adl_serializerES3_IhSaIhEEE11set_parentsEv(ptr noundef nonnull align 8 dereferenceable(16) %0) #0 comdat align 2 {
  %2 = alloca ptr, align 8
  store ptr %0, ptr %2, align 8, !tbaa !18
  ret void
}

; Function Attrs: inlinehint mustprogress nounwind uwtable
define linkonce_odr hidden void @_ZSt4swapIN8nlohmann16json_abi_v3_11_210basic_jsonISt3mapSt6vectorNSt7__cxx1112basic_stringIcSt11char_traitsIcESaIcEEEblmdSaNS1_14adl_serializerES4_IhSaIhEEE10json_valueEENSt9enable_ifIXsr6__and_ISt6__not_ISt15__is_tuple_likeIT_EESt21is_move_constructibleISJ_ESt18is_move_assignableISJ_EEE5valueEvE4typeERSJ_SS_(ptr noundef nonnull align 8 dereferenceable(8) %0, ptr noundef nonnull align 8 dereferenceable(8) %1) #2 comdat {
  %3 = alloca ptr, align 8
  %4 = alloca ptr, align 8
  %5 = alloca %"union.nlohmann::json_abi_v3_11_2::basic_json<>::json_value", align 8
  store ptr %0, ptr %3, align 8, !tbaa !346
  store ptr %1, ptr %4, align 8, !tbaa !346
  call void @llvm.lifetime.start.p0(i64 8, ptr %5) #14
  %6 = load ptr, ptr %3, align 8, !tbaa !346
  call void @llvm.memcpy.p0.p0.i64(ptr align 8 %5, ptr align 8 %6, i64 8, i1 false), !tbaa.struct !343
  %7 = load ptr, ptr %4, align 8, !tbaa !346
  %8 = load ptr, ptr %3, align 8, !tbaa !346
  call void @llvm.memcpy.p0.p0.i64(ptr align 8 %8, ptr align 8 %7, i64 8, i1 false), !tbaa.struct !343
  %9 = load ptr, ptr %4, align 8, !tbaa !346
  call void @llvm.memcpy.p0.p0.i64(ptr align 8 %9, ptr align 8 %5, i64 8, i1 false), !tbaa.struct !343
  call void @llvm.lifetime.end.p0(i64 8, ptr %5) #14
  ret void
}

; Function Attrs: inlinehint mustprogress nounwind uwtable
define linkonce_odr hidden void @_ZSt4swapIN8nlohmann16json_abi_v3_11_26detail7value_tEENSt9enable_ifIXsr6__and_ISt6__not_ISt15__is_tuple_likeIT_EESt21is_move_constructibleIS7_ESt18is_move_assignableIS7_EEE5valueEvE4typeERS7_SG_(ptr noundef nonnull align 1 dereferenceable(1) %0, ptr noundef nonnull align 1 dereferenceable(1) %1) #2 comdat {
  %3 = alloca ptr, align 8
  %4 = alloca ptr, align 8
  %5 = alloca i8, align 1
  store ptr %0, ptr %3, align 8, !tbaa !364
  store ptr %1, ptr %4, align 8, !tbaa !364
  call void @llvm.lifetime.start.p0(i64 1, ptr %5) #14
  %6 = load ptr, ptr %3, align 8, !tbaa !364
  %7 = load i8, ptr %6, align 1, !tbaa !569
  store i8 %7, ptr %5, align 1, !tbaa !569
  %8 = load ptr, ptr %4, align 8, !tbaa !364
  %9 = load i8, ptr %8, align 1, !tbaa !569
  %10 = load ptr, ptr %3, align 8, !tbaa !364
  store i8 %9, ptr %10, align 1, !tbaa !569
  %11 = load i8, ptr %5, align 1, !tbaa !569
  %12 = load ptr, ptr %4, align 8, !tbaa !364
  store i8 %11, ptr %12, align 1, !tbaa !569
  call void @llvm.lifetime.end.p0(i64 1, ptr %5) #14
  ret void
}

; Function Attrs: mustprogress nounwind uwtable
define linkonce_odr hidden void @_ZNK8nlohmann16json_abi_v3_11_210basic_jsonISt3mapSt6vectorNSt7__cxx1112basic_stringIcSt11char_traitsIcESaIcEEEblmdSaNS0_14adl_serializerES3_IhSaIhEEE16assert_invariantEb(ptr noundef nonnull align 8 dereferenceable(16) %0, i1 noundef zeroext %1) #0 comdat align 2 {
  %3 = alloca ptr, align 8
  %4 = alloca i8, align 1
  store ptr %0, ptr %3, align 8, !tbaa !18
  %5 = zext i1 %1 to i8
  store i8 %5, ptr %4, align 1, !tbaa !27
  ret void
}

; Function Attrs: inlinehint mustprogress nounwind uwtable
define linkonce_odr hidden void @_ZN4LIEF11JsonVisitorD2Ev(ptr noundef nonnull align 8 dereferenceable(72) %0) unnamed_addr #2 comdat align 2 {
  %2 = alloca ptr, align 8
  store ptr %0, ptr %2, align 8, !tbaa !16
  %3 = load ptr, ptr %2, align 8
  store ptr getelementptr inbounds inrange(-16, 1264) ({ [160 x ptr] }, ptr @_ZTVN4LIEF11JsonVisitorE, i32 0, i32 0, i32 2), ptr %3, align 8, !tbaa !10
  %4 = getelementptr inbounds nuw %"class.LIEF::JsonVisitor", ptr %3, i32 0, i32 1
  call void @_ZN8nlohmann16json_abi_v3_11_210basic_jsonISt3mapSt6vectorNSt7__cxx1112basic_stringIcSt11char_traitsIcESaIcEEEblmdSaNS0_14adl_serializerES3_IhSaIhEEED2Ev(ptr noundef nonnull align 8 dereferenceable(16) %4) #14
  call void @_ZN4LIEF7VisitorD2Ev(ptr noundef nonnull align 8 dereferenceable(56) %3) #14
  ret void
}

; Function Attrs: mustprogress nounwind uwtable
define linkonce_odr hidden void @_ZN8nlohmann16json_abi_v3_11_210basic_jsonISt3mapSt6vectorNSt7__cxx1112basic_stringIcSt11char_traitsIcESaIcEEEblmdSaNS0_14adl_serializerES3_IhSaIhEEED2Ev(ptr noundef nonnull align 8 dereferenceable(16) %0) unnamed_addr #0 comdat align 2 {
  %2 = alloca ptr, align 8
  store ptr %0, ptr %2, align 8, !tbaa !18
  %3 = load ptr, ptr %2, align 8
  call void @_ZNK8nlohmann16json_abi_v3_11_210basic_jsonISt3mapSt6vectorNSt7__cxx1112basic_stringIcSt11char_traitsIcESaIcEEEblmdSaNS0_14adl_serializerES3_IhSaIhEEE16assert_invariantEb(ptr noundef nonnull align 8 dereferenceable(16) %3, i1 noundef zeroext false) #14
  %4 = getelementptr inbounds nuw %"class.nlohmann::json_abi_v3_11_2::basic_json", ptr %3, i32 0, i32 1
  %5 = getelementptr inbounds nuw %"class.nlohmann::json_abi_v3_11_2::basic_json", ptr %3, i32 0, i32 0
  %6 = load i8, ptr %5, align 8, !tbaa !22
  call void @_ZN8nlohmann16json_abi_v3_11_210basic_jsonISt3mapSt6vectorNSt7__cxx1112basic_stringIcSt11char_traitsIcESaIcEEEblmdSaNS0_14adl_serializerES3_IhSaIhEEE10json_value7destroyENS0_6detail7value_tE(ptr noundef nonnull align 8 dereferenceable(8) %4, i8 noundef zeroext %6)
  ret void
}

; Function Attrs: mustprogress nounwind uwtable
define linkonce_odr hidden noundef nonnull align 8 dereferenceable(16) ptr @_ZN8nlohmann16json_abi_v3_11_210basic_jsonISt3mapSt6vectorNSt7__cxx1112basic_stringIcSt11char_traitsIcESaIcEEEblmdSaNS0_14adl_serializerES3_IhSaIhEEEaSESD_(ptr noundef nonnull align 8 dereferenceable(16) %0, ptr noundef %1) #0 comdat align 2 {
  %3 = alloca ptr, align 8
  %4 = alloca ptr, align 8
  store ptr %0, ptr %3, align 8, !tbaa !18
  store ptr %1, ptr %4, align 8, !tbaa !18
  %5 = load ptr, ptr %3, align 8
  call void @_ZNK8nlohmann16json_abi_v3_11_210basic_jsonISt3mapSt6vectorNSt7__cxx1112basic_stringIcSt11char_traitsIcESaIcEEEblmdSaNS0_14adl_serializerES3_IhSaIhEEE16assert_invariantEb(ptr noundef nonnull align 8 dereferenceable(16) %1, i1 noundef zeroext true) #14
  %6 = getelementptr inbounds nuw %"class.nlohmann::json_abi_v3_11_2::basic_json", ptr %5, i32 0, i32 0
  %7 = getelementptr inbounds nuw %"class.nlohmann::json_abi_v3_11_2::basic_json", ptr %1, i32 0, i32 0
  call void @_ZSt4swapIN8nlohmann16json_abi_v3_11_26detail7value_tEENSt9enable_ifIXsr6__and_ISt6__not_ISt15__is_tuple_likeIT_EESt21is_move_constructibleIS7_ESt18is_move_assignableIS7_EEE5valueEvE4typeERS7_SG_(ptr noundef nonnull align 1 dereferenceable(1) %6, ptr noundef nonnull align 1 dereferenceable(1) %7) #14
  %8 = getelementptr inbounds nuw %"class.nlohmann::json_abi_v3_11_2::basic_json", ptr %5, i32 0, i32 1
  %9 = getelementptr inbounds nuw %"class.nlohmann::json_abi_v3_11_2::basic_json", ptr %1, i32 0, i32 1
  call void @_ZSt4swapIN8nlohmann16json_abi_v3_11_210basic_jsonISt3mapSt6vectorNSt7__cxx1112basic_stringIcSt11char_traitsIcESaIcEEEblmdSaNS1_14adl_serializerES4_IhSaIhEEE10json_valueEENSt9enable_ifIXsr6__and_ISt6__not_ISt15__is_tuple_likeIT_EESt21is_move_constructibleISJ_ESt18is_move_assignableISJ_EEE5valueEvE4typeERSJ_SS_(ptr noundef nonnull align 8 dereferenceable(8) %8, ptr noundef nonnull align 8 dereferenceable(8) %9) #14
  call void @_ZN8nlohmann16json_abi_v3_11_210basic_jsonISt3mapSt6vectorNSt7__cxx1112basic_stringIcSt11char_traitsIcESaIcEEEblmdSaNS0_14adl_serializerES3_IhSaIhEEE11set_parentsEv(ptr noundef nonnull align 8 dereferenceable(16) %5)
  call void @_ZNK8nlohmann16json_abi_v3_11_210basic_jsonISt3mapSt6vectorNSt7__cxx1112basic_stringIcSt11char_traitsIcESaIcEEEblmdSaNS0_14adl_serializerES3_IhSaIhEEE16assert_invariantEb(ptr noundef nonnull align 8 dereferenceable(16) %5, i1 noundef zeroext true) #14
  ret ptr %5
}

; Function Attrs: inlinehint mustprogress nounwind uwtable
define linkonce_odr hidden void @_ZNK4LIEF11JsonVisitor3getB5cxx11Ev(ptr dead_on_unwind noalias writable sret(%"class.nlohmann::json_abi_v3_11_2::basic_json") align 8 %0, ptr noundef nonnull align 8 dereferenceable(72) %1) #2 comdat align 2 {
  %3 = alloca ptr, align 8
  %4 = alloca ptr, align 8
  store ptr %0, ptr %3, align 8
  store ptr %1, ptr %4, align 8, !tbaa !16
  %5 = load ptr, ptr %4, align 8
  %6 = getelementptr inbounds nuw %"class.LIEF::JsonVisitor", ptr %5, i32 0, i32 1
  call void @_ZN8nlohmann16json_abi_v3_11_210basic_jsonISt3mapSt6vectorNSt7__cxx1112basic_stringIcSt11char_traitsIcESaIcEEEblmdSaNS0_14adl_serializerES3_IhSaIhEEEC2ERKSD_(ptr noundef nonnull align 8 dereferenceable(16) %0, ptr noundef nonnull align 8 dereferenceable(16) %6)
  ret void
}

; Function Attrs: mustprogress nounwind uwtable
define linkonce_odr void @_ZN4LIEF7VisitorclIRKNS_3ART6HeaderEJEEEvOT_DpOT0_(ptr noundef nonnull align 8 dereferenceable(56) %0, ptr noundef nonnull align 8 dereferenceable(96) %1) #0 comdat align 2 {
  %3 = alloca ptr, align 8
  %4 = alloca ptr, align 8
  store ptr %0, ptr %3, align 8, !tbaa !12
  store ptr %1, ptr %4, align 8, !tbaa !14
  %5 = load ptr, ptr %3, align 8
  %6 = load ptr, ptr %4, align 8, !tbaa !14
  call void @_ZN4LIEF7Visitor8dispatchINS_3ART6HeaderEEEvRKT_(ptr noundef nonnull align 8 dereferenceable(56) %5, ptr noundef nonnull align 8 dereferenceable(96) %6)
  %7 = load ptr, ptr %5, align 8, !tbaa !10
  %8 = getelementptr inbounds ptr, ptr %7, i64 2
  %9 = load ptr, ptr %8, align 8
  call void %9(ptr noundef nonnull align 8 dereferenceable(56) %5)
  ret void
}

; Function Attrs: inlinehint mustprogress nounwind uwtable
define linkonce_odr hidden void @_ZN4LIEF3ART11JsonVisitorC2Ev(ptr noundef nonnull align 8 dereferenceable(72) %0) unnamed_addr #2 comdat align 2 {
  %2 = alloca ptr, align 8
  store ptr %0, ptr %2, align 8, !tbaa !3
  %3 = load ptr, ptr %2, align 8
  call void @_ZN4LIEF11JsonVisitorC2Ev(ptr noundef nonnull align 8 dereferenceable(72) %3)
  store ptr getelementptr inbounds inrange(-16, 1264) ({ [160 x ptr] }, ptr @_ZTVN4LIEF3ART11JsonVisitorE, i32 0, i32 0, i32 2), ptr %3, align 8, !tbaa !10
  ret void
}

; Function Attrs: mustprogress nounwind uwtable
define hidden void @_ZN4LIEF3ART11JsonVisitor5visitERKNS0_4FileE(ptr noundef nonnull align 8 dereferenceable(72) %0, ptr noundef nonnull align 8 dereferenceable(104) %1) unnamed_addr #0 align 2 {
  %3 = alloca ptr, align 8
  %4 = alloca ptr, align 8
  %5 = alloca %"class.LIEF::ART::JsonVisitor", align 8
  %6 = alloca %"class.nlohmann::json_abi_v3_11_2::basic_json", align 8
  store ptr %0, ptr %3, align 8, !tbaa !3
  store ptr %1, ptr %4, align 8, !tbaa !8
  %7 = load ptr, ptr %3, align 8
  call void @llvm.lifetime.start.p0(i64 72, ptr %5) #14
  call void @_ZN4LIEF3ART11JsonVisitorC2Ev(ptr noundef nonnull align 8 dereferenceable(72) %5)
  %8 = load ptr, ptr %4, align 8, !tbaa !8
  %9 = call noundef nonnull align 8 dereferenceable(96) ptr @_ZNK4LIEF3ART4File6headerEv(ptr noundef nonnull align 8 dereferenceable(104) %8)
  call void @_ZN4LIEF7VisitorclIRKNS_3ART6HeaderEJEEEvOT_DpOT0_(ptr noundef nonnull align 8 dereferenceable(56) %5, ptr noundef nonnull align 8 dereferenceable(96) %9)
  call void @_ZNK4LIEF11JsonVisitor3getB5cxx11Ev(ptr dead_on_unwind writable sret(%"class.nlohmann::json_abi_v3_11_2::basic_json") align 8 %6, ptr noundef nonnull align 8 dereferenceable(72) %5)
  %10 = getelementptr inbounds nuw %"class.LIEF::JsonVisitor", ptr %7, i32 0, i32 1
  %11 = call noundef nonnull align 8 dereferenceable(16) ptr @_ZN8nlohmann16json_abi_v3_11_210basic_jsonISt3mapSt6vectorNSt7__cxx1112basic_stringIcSt11char_traitsIcESaIcEEEblmdSaNS0_14adl_serializerES3_IhSaIhEEEixIKcEERSD_PT_(ptr noundef nonnull align 8 dereferenceable(16) %10, ptr noundef @.str)
  %12 = call noundef nonnull align 8 dereferenceable(16) ptr @_ZN8nlohmann16json_abi_v3_11_210basic_jsonISt3mapSt6vectorNSt7__cxx1112basic_stringIcSt11char_traitsIcESaIcEEEblmdSaNS0_14adl_serializerES3_IhSaIhEEEaSESD_(ptr noundef nonnull align 8 dereferenceable(16) %11, ptr noundef %6) #14
  call void @_ZN8nlohmann16json_abi_v3_11_210basic_jsonISt3mapSt6vectorNSt7__cxx1112basic_stringIcSt11char_traitsIcESaIcEEEblmdSaNS0_14adl_serializerES3_IhSaIhEEED2Ev(ptr noundef nonnull align 8 dereferenceable(16) %6) #14
  call void @_ZN4LIEF11JsonVisitorD2Ev(ptr noundef nonnull align 8 dereferenceable(72) %5) #14
  call void @llvm.lifetime.end.p0(i64 72, ptr %5) #14
  ret void
}