; Function Attrs: mustprogress nounwind uwtable
define hidden void @_ZN4LIEF3ART11JsonVisitor5visitERKNS0_4FileE(ptr noundef nonnull align 8 dereferenceable(72) %0, ptr noundef nonnull align 8 dereferenceable(104) %1) unnamed_addr #0 align 2 {
  %3 = alloca %"class.LIEF::ART::JsonVisitor", align 8
  %4 = alloca %"class.nlohmann::json_abi_v3_11_2::basic_json", align 8
  call void @llvm.lifetime.start.p0(i64 72, ptr nonnull %3) #16
  call void @_ZN4LIEF11JsonVisitorC2Ev(ptr noundef nonnull align 8 dereferenceable(72) %3) #16
  store ptr getelementptr inbounds nuw inrange(-16, 1264) (i8, ptr @_ZTVN4LIEF3ART11JsonVisitorE, i64 16), ptr %3, align 8, !tbaa !3
  %5 = call noundef nonnull align 8 dereferenceable(96) ptr @_ZNK4LIEF3ART4File6headerEv(ptr noundef nonnull align 8 dereferenceable(104) %1) #16
  call void @_ZN4LIEF7Visitor8dispatchINS_3ART6HeaderEEEvRKT_(ptr noundef nonnull align 8 dereferenceable(56) %3, ptr noundef nonnull align 8 dereferenceable(96) %5)
  %6 = load ptr, ptr %3, align 8, !tbaa !3
  %7 = getelementptr inbounds nuw i8, ptr %6, i64 16
  %8 = load ptr, ptr %7, align 8
  call void %8(ptr noundef nonnull align 8 dereferenceable(56) %3) #16
  %9 = getelementptr inbounds nuw i8, ptr %3, i64 56
  call void @_ZN8nlohmann16json_abi_v3_11_210basic_jsonISt3mapSt6vectorNSt7__cxx1112basic_stringIcSt11char_traitsIcESaIcEEEblmdSaNS0_14adl_serializerES3_IhSaIhEEEC2ERKSD_(ptr noundef nonnull align 8 dereferenceable(16) %4, ptr noundef nonnull align 8 dereferenceable(16) %9)
  %10 = getelementptr inbounds nuw i8, ptr %0, i64 56
  %11 = call noundef nonnull align 8 dereferenceable(16) ptr @_ZN8nlohmann16json_abi_v3_11_210basic_jsonISt3mapSt6vectorNSt7__cxx1112basic_stringIcSt11char_traitsIcESaIcEEEblmdSaNS0_14adl_serializerES3_IhSaIhEEEixIKcEERSD_PT_(ptr noundef nonnull align 8 dereferenceable(16) %10, ptr noundef nonnull @.str)
  %12 = load i8, ptr %11, align 8, !tbaa !6
  %13 = load i8, ptr %4, align 8, !tbaa !6
  store i8 %13, ptr %11, align 8, !tbaa !6
  store i8 %12, ptr %4, align 8, !tbaa !6
  %14 = getelementptr inbounds nuw i8, ptr %11, i64 8
  %15 = getelementptr inbounds nuw i8, ptr %4, i64 8
  %.sroa.0.0.copyload.i.i = load ptr, ptr %14, align 8, !tbaa !9
  %16 = load i64, ptr %15, align 8, !tbaa !9
  store i64 %16, ptr %14, align 8, !tbaa !9
  store ptr %.sroa.0.0.copyload.i.i, ptr %15, align 8, !tbaa !9
  call void @_ZN8nlohmann16json_abi_v3_11_210basic_jsonISt3mapSt6vectorNSt7__cxx1112basic_stringIcSt11char_traitsIcESaIcEEEblmdSaNS0_14adl_serializerES3_IhSaIhEEE10json_value7destroyENS0_6detail7value_tE(ptr noundef nonnull align 8 dereferenceable(8) %15, i8 noundef zeroext %12)
  store ptr getelementptr inbounds nuw inrange(-16, 1264) (i8, ptr @_ZTVN4LIEF11JsonVisitorE, i64 16), ptr %3, align 8, !tbaa !3
  %17 = getelementptr inbounds nuw i8, ptr %3, i64 64
  %18 = load i8, ptr %9, align 8, !tbaa !10
  call void @_ZN8nlohmann16json_abi_v3_11_210basic_jsonISt3mapSt6vectorNSt7__cxx1112basic_stringIcSt11char_traitsIcESaIcEEEblmdSaNS0_14adl_serializerES3_IhSaIhEEE10json_value7destroyENS0_6detail7value_tE(ptr noundef nonnull align 8 dereferenceable(8) %17, i8 noundef zeroext %18)
  call void @_ZN4LIEF7VisitorD2Ev(ptr noundef nonnull align 8 dereferenceable(72) %3) #16
  call void @llvm.lifetime.end.p0(i64 72, ptr nonnull %3) #16
  ret void
}